; Function Attrs: mustprogress uwtable
define hidden noundef ptr @_ZN19OpenColorIO_v2_5dev17CTFReaderLut3DElt17updateDimensionIMERKSt6vectorIjSaIjEE(ptr noundef nonnull align 8 dereferenceable(240) %0, ptr noundef nonnull readonly align 8 captures(none) dereferenceable(24) %1) unnamed_addr #4 align 2 {
  %3 = getelementptr inbounds nuw i8, ptr %1, i64 8
  %4 = load ptr, ptr %3, align 8, !tbaa !88
  %5 = load ptr, ptr %1, align 8, !tbaa !84
  %6 = ptrtoint ptr %4 to i64
  %7 = ptrtoint ptr %5 to i64
  %8 = sub i64 %6, %7
  %.not = icmp eq i64 %8, 4
  br i1 %.not, label %9, label %15

9:                                                ; preds = %2
  %10 = load i32, ptr %5, align 4, !tbaa !35
  %11 = icmp eq i32 %10, 0
  br i1 %11, label %15, label %12

12:                                               ; preds = %9
  %13 = getelementptr inbounds nuw i8, ptr %0, i64 152
  %14 = zext i32 %10 to i64
  tail call void @_ZN19OpenColorIO_v2_5dev12IndexMapping6resizeEm(ptr noundef nonnull align 8 dereferenceable(88) %13, i64 noundef %14)
  br label %15

15:                                               ; preds = %12, %9, %2
  %.0 = phi ptr [ null, %2 ], [ %13, %12 ], [ null, %9 ]
  ret ptr %.0
}